target datalayout = "e-m:e-p270:32:32-p271:32:32-p272:64:64-i64:64-i128:128-f80:128-n8:16:32:64-S128"
target triple = "x86_64-pc-linux-gnu"

%struct.expert_field = type { i32, i32 }

@hf_pfcp_trace_information_trace_id = internal global i32 0, align 4
@hf_pfcp_trace_information_length_trigger_events = internal global i32 0, align 4
@hf_pfcp_trace_information_trigger_events = internal global i32 0, align 4
@hf_pfcp_trace_information_session_trace_depth = internal global i32 0, align 4
@hf_pfcp_trace_information_length_list_interfaces = internal global i32 0, align 4
@hf_pfcp_trace_information_list_interfaces = internal global i32 0, align 4
@hf_pfcp_trace_information_length_ipaddress = internal global i32 0, align 4
@hf_pfcp_trace_information_ipv4 = internal global i32 0, align 4
@hf_pfcp_trace_information_ipv6 = internal global i32 0, align 4
@ei_pfcp_ie_data_not_decoded = internal global %struct.expert_field zeroinitializer, align 4

; Function Attrs: null_pointer_is_valid sspstrong uwtable
define internal void @dissect_pfcp_trace_information(ptr noundef %0, ptr noundef %1, ptr noundef %2, ptr noundef %3, i16 noundef zeroext %4, i8 noundef zeroext %5, ptr noundef %6) #0 {
  %8 = alloca ptr, align 8
  %9 = alloca ptr, align 8
  %10 = alloca ptr, align 8
  %11 = alloca ptr, align 8
  %12 = alloca i16, align 2
  %13 = alloca i8, align 1
  %14 = alloca ptr, align 8
  %15 = alloca i32, align 4
  %16 = alloca i32, align 4
  %17 = alloca i32, align 4
  %18 = alloca i32, align 4
  store ptr %0, ptr %8, align 8
  store ptr %1, ptr %9, align 8
  store ptr %2, ptr %10, align 8
  store ptr %3, ptr %11, align 8
  store i16 %4, ptr %12, align 2
  store i8 %5, ptr %13, align 1
  store ptr %6, ptr %14, align 8
  call void @llvm.lifetime.start.p0(i64 4, ptr %15) #13
  store i32 0, ptr %15, align 4
  call void @llvm.lifetime.start.p0(i64 4, ptr %16) #13
  call void @llvm.lifetime.start.p0(i64 4, ptr %17) #13
  call void @llvm.lifetime.start.p0(i64 4, ptr %18) #13
  %19 = load ptr, ptr %8, align 8
  %20 = load ptr, ptr %9, align 8
  %21 = load ptr, ptr %10, align 8
  %22 = load i32, ptr %15, align 4
  %23 = call i32 @dissect_e212_mcc_mnc(ptr noundef %19, ptr noundef %20, ptr noundef %21, i32 noundef %22, i32 noundef 0, i1 noundef zeroext true)
  store i32 %23, ptr %15, align 4
  %24 = load ptr, ptr %10, align 8
  %25 = load i32, ptr @hf_pfcp_trace_information_trace_id, align 4
  %26 = load ptr, ptr %8, align 8
  %27 = load i32, ptr %15, align 4
  %28 = call ptr @proto_tree_add_item(ptr noundef %24, i32 noundef %25, ptr noundef %26, i32 noundef %27, i32 noundef 3, i32 noundef 0)
  %29 = load i32, ptr %15, align 4
  %30 = add i32 %29, 3
  store i32 %30, ptr %15, align 4
  %31 = load ptr, ptr %10, align 8
  %32 = load i32, ptr @hf_pfcp_trace_information_length_trigger_events, align 4
  %33 = load ptr, ptr %8, align 8
  %34 = load i32, ptr %15, align 4
  %35 = call ptr @proto_tree_add_item_ret_uint(ptr noundef %31, i32 noundef %32, ptr noundef %33, i32 noundef %34, i32 noundef 1, i32 noundef 0, ptr noundef %16)
  %36 = load i32, ptr %15, align 4
  %37 = add i32 %36, 1
  store i32 %37, ptr %15, align 4
  %38 = load ptr, ptr %10, align 8
  %39 = load i32, ptr @hf_pfcp_trace_information_trigger_events, align 4
  %40 = load ptr, ptr %8, align 8
  %41 = load i32, ptr %15, align 4
  %42 = load i32, ptr %16, align 4
  %43 = call ptr @proto_tree_add_item(ptr noundef %38, i32 noundef %39, ptr noundef %40, i32 noundef %41, i32 noundef %42, i32 noundef 0)
  %44 = load i32, ptr %16, align 4
  %45 = load i32, ptr %15, align 4
  %46 = add i32 %45, %44
  store i32 %46, ptr %15, align 4
  %47 = load ptr, ptr %10, align 8
  %48 = load i32, ptr @hf_pfcp_trace_information_session_trace_depth, align 4
  %49 = load ptr, ptr %8, align 8
  %50 = load i32, ptr %15, align 4
  %51 = call ptr @proto_tree_add_item(ptr noundef %47, i32 noundef %48, ptr noundef %49, i32 noundef %50, i32 noundef 1, i32 noundef 0)
  %52 = load i32, ptr %15, align 4
  %53 = add i32 %52, 1
  store i32 %53, ptr %15, align 4
  %54 = load ptr, ptr %10, align 8
  %55 = load i32, ptr @hf_pfcp_trace_information_length_list_interfaces, align 4
  %56 = load ptr, ptr %8, align 8
  %57 = load i32, ptr %15, align 4
  %58 = call ptr @proto_tree_add_item_ret_uint(ptr noundef %54, i32 noundef %55, ptr noundef %56, i32 noundef %57, i32 noundef 1, i32 noundef 0, ptr noundef %17)
  %59 = load i32, ptr %15, align 4
  %60 = add i32 %59, 1
  store i32 %60, ptr %15, align 4
  %61 = load ptr, ptr %10, align 8
  %62 = load i32, ptr @hf_pfcp_trace_information_list_interfaces, align 4
  %63 = load ptr, ptr %8, align 8
  %64 = load i32, ptr %15, align 4
  %65 = load i32, ptr %17, align 4
  %66 = call ptr @proto_tree_add_item(ptr noundef %61, i32 noundef %62, ptr noundef %63, i32 noundef %64, i32 noundef %65, i32 noundef 0)
  %67 = load i32, ptr %17, align 4
  %68 = load i32, ptr %15, align 4
  %69 = add i32 %68, %67
  store i32 %69, ptr %15, align 4
  %70 = load ptr, ptr %10, align 8
  %71 = load i32, ptr @hf_pfcp_trace_information_length_ipaddress, align 4
  %72 = load ptr, ptr %8, align 8
  %73 = load i32, ptr %15, align 4
  %74 = call ptr @proto_tree_add_item_ret_uint(ptr noundef %70, i32 noundef %71, ptr noundef %72, i32 noundef %73, i32 noundef 1, i32 noundef 0, ptr noundef %18)
  %75 = load i32, ptr %15, align 4
  %76 = add i32 %75, 1
  store i32 %76, ptr %15, align 4
  %77 = load i32, ptr %18, align 4
  %78 = icmp eq i32 %77, 4
  br i1 %78, label %79, label %86

79:                                               ; preds = %7
  %80 = load ptr, ptr %10, align 8
  %81 = load i32, ptr @hf_pfcp_trace_information_ipv4, align 4
  %82 = load ptr, ptr %8, align 8
  %83 = load i32, ptr %15, align 4
  %84 = load i32, ptr %18, align 4
  %85 = call ptr @proto_tree_add_item(ptr noundef %80, i32 noundef %81, ptr noundef %82, i32 noundef %83, i32 noundef %84, i32 noundef 0)
  br label %97

86:                                               ; preds = %7
  %87 = load i32, ptr %18, align 4
  %88 = icmp eq i32 %87, 16
  br i1 %88, label %89, label %96

89:                                               ; preds = %86
  %90 = load ptr, ptr %10, align 8
  %91 = load i32, ptr @hf_pfcp_trace_information_ipv6, align 4
  %92 = load ptr, ptr %8, align 8
  %93 = load i32, ptr %15, align 4
  %94 = load i32, ptr %18, align 4
  %95 = call ptr @proto_tree_add_item(ptr noundef %90, i32 noundef %91, ptr noundef %92, i32 noundef %93, i32 noundef %94, i32 noundef 0)
  br label %96

96:                                               ; preds = %89, %86
  br label %97

97:                                               ; preds = %96, %79
  %98 = load i32, ptr %18, align 4
  %99 = load i32, ptr %15, align 4
  %100 = add i32 %99, %98
  store i32 %100, ptr %15, align 4
  %101 = load i32, ptr %15, align 4
  %102 = load i16, ptr %12, align 2
  %103 = zext i16 %102 to i32
  %104 = icmp slt i32 %101, %103
  br i1 %104, label %105, label %111

105:                                              ; preds = %97
  %106 = load ptr, ptr %10, align 8
  %107 = load ptr, ptr %9, align 8
  %108 = load ptr, ptr %8, align 8
  %109 = load i32, ptr %15, align 4
  %110 = call ptr @proto_tree_add_expert(ptr noundef %106, ptr noundef %107, ptr noundef @ei_pfcp_ie_data_not_decoded, ptr noundef %108, i32 noundef %109, i32 noundef -1)
  br label %111

111:                                              ; preds = %105, %97
  call void @llvm.lifetime.end.p0(i64 4, ptr %18) #13
  call void @llvm.lifetime.end.p0(i64 4, ptr %17) #13
  call void @llvm.lifetime.end.p0(i64 4, ptr %16) #13
  call void @llvm.lifetime.end.p0(i64 4, ptr %15) #13
  ret void
}