; Function Attrs: null_pointer_is_valid sspstrong uwtable
define internal void @dissect_pfcp_trace_information(ptr noundef %0, ptr noundef %1, ptr noundef %2, ptr readnone captures(none) %3, i16 noundef zeroext %4, i8 zeroext %5, ptr readnone captures(none) %6) #0 {
  %8 = alloca i32, align 4
  %9 = alloca i32, align 4
  %10 = alloca i32, align 4
  call void @llvm.lifetime.start.p0(i64 4, ptr nonnull %8) #15
  call void @llvm.lifetime.start.p0(i64 4, ptr nonnull %9) #15
  call void @llvm.lifetime.start.p0(i64 4, ptr nonnull %10) #15
  %11 = tail call i32 @dissect_e212_mcc_mnc(ptr noundef %0, ptr noundef %1, ptr noundef %2, i32 noundef 0, i32 noundef 0, i1 noundef zeroext true)
  %12 = load i32, ptr @hf_pfcp_trace_information_trace_id, align 4
  %13 = tail call ptr @proto_tree_add_item(ptr noundef %2, i32 noundef %12, ptr noundef %0, i32 noundef %11, i32 noundef 3, i32 noundef 0)
  %14 = add i32 %11, 3
  %15 = load i32, ptr @hf_pfcp_trace_information_length_trigger_events, align 4
  %16 = call ptr @proto_tree_add_item_ret_uint(ptr noundef %2, i32 noundef %15, ptr noundef %0, i32 noundef %14, i32 noundef 1, i32 noundef 0, ptr noundef nonnull %8)
  %17 = add i32 %11, 4
  %18 = load i32, ptr @hf_pfcp_trace_information_trigger_events, align 4
  %19 = load i32, ptr %8, align 4
  %20 = call ptr @proto_tree_add_item(ptr noundef %2, i32 noundef %18, ptr noundef %0, i32 noundef %17, i32 noundef %19, i32 noundef 0)
  %21 = load i32, ptr %8, align 4
  %22 = add i32 %21, %17
  %23 = load i32, ptr @hf_pfcp_trace_information_session_trace_depth, align 4
  %24 = call ptr @proto_tree_add_item(ptr noundef %2, i32 noundef %23, ptr noundef %0, i32 noundef %22, i32 noundef 1, i32 noundef 0)
  %25 = add i32 %22, 1
  %26 = load i32, ptr @hf_pfcp_trace_information_length_list_interfaces, align 4
  %27 = call ptr @proto_tree_add_item_ret_uint(ptr noundef %2, i32 noundef %26, ptr noundef %0, i32 noundef %25, i32 noundef 1, i32 noundef 0, ptr noundef nonnull %9)
  %28 = add i32 %22, 2
  %29 = load i32, ptr @hf_pfcp_trace_information_list_interfaces, align 4
  %30 = load i32, ptr %9, align 4
  %31 = call ptr @proto_tree_add_item(ptr noundef %2, i32 noundef %29, ptr noundef %0, i32 noundef %28, i32 noundef %30, i32 noundef 0)
  %32 = load i32, ptr %9, align 4
  %33 = add i32 %32, %28
  %34 = load i32, ptr @hf_pfcp_trace_information_length_ipaddress, align 4
  %35 = call ptr @proto_tree_add_item_ret_uint(ptr noundef %2, i32 noundef %34, ptr noundef %0, i32 noundef %33, i32 noundef 1, i32 noundef 0, ptr noundef nonnull %10)
  %36 = add i32 %33, 1
  %37 = load i32, ptr %10, align 4
  switch i32 %37, label %41 [
    i32 4, label %.sink.split
    i32 16, label %38
  ]

38:                                               ; preds = %7
  br label %.sink.split

.sink.split:                                      ; preds = %7, %38
  %hf_pfcp_trace_information_ipv6.sink = phi ptr [ @hf_pfcp_trace_information_ipv6, %38 ], [ @hf_pfcp_trace_information_ipv4, %7 ]
  %39 = load i32, ptr %hf_pfcp_trace_information_ipv6.sink, align 4
  %40 = call ptr @proto_tree_add_item(ptr noundef %2, i32 noundef %39, ptr noundef %0, i32 noundef %36, i32 noundef %37, i32 noundef 0)
  br label %41

41:                                               ; preds = %.sink.split, %7
  %42 = load i32, ptr %10, align 4
  %43 = add i32 %42, %36
  %44 = zext i16 %4 to i32
  %45 = icmp slt i32 %43, %44
  br i1 %45, label %46, label %48

46:                                               ; preds = %41
  %47 = call ptr @proto_tree_add_expert(ptr noundef %2, ptr noundef %1, ptr noundef nonnull @ei_pfcp_ie_data_not_decoded, ptr noundef %0, i32 noundef %43, i32 noundef -1)
  br label %48

48:                                               ; preds = %46, %41
  call void @llvm.lifetime.end.p0(i64 4, ptr nonnull %10) #15
  call void @llvm.lifetime.end.p0(i64 4, ptr nonnull %9) #15
  call void @llvm.lifetime.end.p0(i64 4, ptr nonnull %8) #15
  ret void
}